; Function Attrs: nounwind sspstrong uwtable
define hidden void @rb_class_detach_module_subclasses(i64 noundef %0) local_unnamed_addr #0 {
  %2 = inttoptr i64 %0 to ptr
  %3 = getelementptr inbounds nuw i8, ptr %2, i64 88
  %4 = load ptr, ptr %3, align 8, !tbaa !14
  %.not.i = icmp eq ptr %4, null
  br i1 %.not.i, label %rb_class_foreach_subclass.exit, label %5

5:                                                ; preds = %1
  %6 = getelementptr inbounds nuw i8, ptr %4, i64 8
  %7 = load ptr, ptr %6, align 8, !tbaa !23
  %.not1011.i = icmp eq ptr %7, null
  br i1 %.not1011.i, label %rb_class_foreach_subclass.exit, label %.lr.ph.i

.lr.ph.i:                                         ; preds = %5, %class_detach_module_subclasses.exit
  %.112.i = phi ptr [ %10, %class_detach_module_subclasses.exit ], [ %7, %5 ]
  %8 = load i64, ptr %.112.i, align 8, !tbaa !7
  %9 = getelementptr inbounds nuw i8, ptr %.112.i, i64 8
  %10 = load ptr, ptr %9, align 8, !tbaa !23
  %11 = inttoptr i64 %8 to ptr
  %12 = getelementptr inbounds nuw i8, ptr %11, i64 104
  %13 = load ptr, ptr %12, align 8, !tbaa !26
  %.not.i.i = icmp eq ptr %13, null
  br i1 %.not.i.i, label %class_detach_module_subclasses.exit, label %14

14:                                               ; preds = %.lr.ph.i
  %15 = getelementptr inbounds nuw i8, ptr %13, i64 16
  %16 = load ptr, ptr %15, align 8, !tbaa !24
  %17 = getelementptr inbounds nuw i8, ptr %13, i64 8
  %18 = load ptr, ptr %17, align 8, !tbaa !23
  %.not13.i.i = icmp eq ptr %16, null
  br i1 %.not13.i.i, label %21, label %19

19:                                               ; preds = %14
  %20 = getelementptr inbounds nuw i8, ptr %16, i64 8
  store ptr %18, ptr %20, align 8, !tbaa !23
  br label %21

21:                                               ; preds = %19, %14
  %.not14.i.i = icmp eq ptr %18, null
  br i1 %.not14.i.i, label %24, label %22

22:                                               ; preds = %21
  %23 = getelementptr inbounds nuw i8, ptr %18, i64 16
  store ptr %16, ptr %23, align 8, !tbaa !24
  br label %24

24:                                               ; preds = %22, %21
  tail call void @ruby_xfree(ptr noundef nonnull %13) #19
  br label %class_detach_module_subclasses.exit

class_detach_module_subclasses.exit:              ; preds = %.lr.ph.i, %24
  store ptr null, ptr %12, align 8, !tbaa !26
  %.not10.i = icmp eq ptr %10, null
  br i1 %.not10.i, label %rb_class_foreach_subclass.exit, label %.lr.ph.i, !llvm.loop !27

rb_class_foreach_subclass.exit:                   ; preds = %class_detach_module_subclasses.exit, %1, %5
  ret void
}